; Function Attrs: mustprogress uwtable
define ptr @cvSeqPush(ptr noundef %0, ptr noundef readonly %1) local_unnamed_addr #0 personality ptr @__gxx_personality_v0 {
  %3 = alloca %"class.std::__cxx11::basic_string", align 8
  %4 = alloca %"class.std::allocator", align 1
  %5 = alloca %"class.std::__cxx11::basic_string", align 8
  %6 = alloca %"class.std::allocator", align 1
  %.not = icmp eq ptr %0, null
  br i1 %.not, label %7, label %20

7:                                                ; preds = %2
  call void @llvm.lifetime.start.p0(i64 32, ptr nonnull %3) #11
  call void @llvm.lifetime.start.p0(i64 1, ptr nonnull %4) #11
  invoke void @_ZNSt7__cxx1112basic_stringIcSt11char_traitsIcESaIcEEC2EPKcRKS3_(ptr noundef nonnull align 8 dereferenceable(32) %3, ptr noundef nonnull @.str, ptr noundef nonnull align 1 dereferenceable(1) %4)
          to label %8 unwind label %10

8:                                                ; preds = %7
  invoke void @_ZN2cv5errorEiRKNSt7__cxx1112basic_stringIcSt11char_traitsIcESaIcEEEPKcS9_i(i32 noundef -27, ptr noundef nonnull align 8 dereferenceable(32) %3, ptr noundef nonnull @__func__.cvSeqPush, ptr noundef nonnull @.str.1, i32 noundef 1138) #12
          to label %9 unwind label %12

9:                                                ; preds = %8
  unreachable

10:                                               ; preds = %7
  %11 = landingpad { ptr, i32 }
          cleanup
  br label %_ZNSt7__cxx1112basic_stringIcSt11char_traitsIcESaIcEED2Ev.exit

12:                                               ; preds = %8
  %13 = landingpad { ptr, i32 }
          cleanup
  %14 = load ptr, ptr %3, align 8, !tbaa !3
  %15 = getelementptr inbounds nuw i8, ptr %3, i64 16
  %16 = icmp eq ptr %14, %15
  br i1 %16, label %_ZNKSt7__cxx1112basic_stringIcSt11char_traitsIcESaIcEE11_M_is_localEv.exit.thread.i.i, label %_ZNKSt7__cxx1112basic_stringIcSt11char_traitsIcESaIcEE11_M_is_localEv.exit.i.i

_ZNKSt7__cxx1112basic_stringIcSt11char_traitsIcESaIcEE11_M_is_localEv.exit.thread.i.i: ; preds = %12
  %17 = getelementptr inbounds nuw i8, ptr %3, i64 8
  %18 = load i64, ptr %17, align 8, !tbaa !11
  %19 = icmp ult i64 %18, 16
  call void @llvm.assume(i1 %19)
  br label %_ZNSt7__cxx1112basic_stringIcSt11char_traitsIcESaIcEED2Ev.exit

_ZNKSt7__cxx1112basic_stringIcSt11char_traitsIcESaIcEE11_M_is_localEv.exit.i.i: ; preds = %12
  call void @_ZdlPv(ptr noundef %14) #13
  br label %_ZNSt7__cxx1112basic_stringIcSt11char_traitsIcESaIcEED2Ev.exit

_ZNSt7__cxx1112basic_stringIcSt11char_traitsIcESaIcEED2Ev.exit: ; preds = %_ZNKSt7__cxx1112basic_stringIcSt11char_traitsIcESaIcEE11_M_is_localEv.exit.i.i, %_ZNKSt7__cxx1112basic_stringIcSt11char_traitsIcESaIcEE11_M_is_localEv.exit.thread.i.i, %10
  %.pn = phi { ptr, i32 } [ %11, %10 ], [ %13, %_ZNKSt7__cxx1112basic_stringIcSt11char_traitsIcESaIcEE11_M_is_localEv.exit.thread.i.i ], [ %13, %_ZNKSt7__cxx1112basic_stringIcSt11char_traitsIcESaIcEE11_M_is_localEv.exit.i.i ]
  call void @llvm.lifetime.end.p0(i64 1, ptr nonnull %4) #11
  call void @llvm.lifetime.end.p0(i64 32, ptr nonnull %3) #11
  br label %58

20:                                               ; preds = %2
  %21 = getelementptr inbounds nuw i8, ptr %0, i64 44
  %22 = load i32, ptr %21, align 4, !tbaa !39
  %23 = sext i32 %22 to i64
  %24 = getelementptr inbounds nuw i8, ptr %0, i64 56
  %25 = load ptr, ptr %24, align 8, !tbaa !69
  %26 = getelementptr inbounds nuw i8, ptr %0, i64 48
  %27 = load ptr, ptr %26, align 8, !tbaa !70
  %.not29 = icmp ult ptr %25, %27
  br i1 %.not29, label %45, label %28

28:                                               ; preds = %20
  tail call fastcc void @_ZL10icvGrowSeqP5CvSeqi(ptr noundef %0, i32 noundef 0)
  %29 = load ptr, ptr %24, align 8, !tbaa !69
  %30 = getelementptr inbounds nuw i8, ptr %29, i64 %23
  %31 = load ptr, ptr %26, align 8, !tbaa !70
  %.not30 = icmp ugt ptr %30, %31
  br i1 %.not30, label %32, label %45

32:                                               ; preds = %28
  call void @llvm.lifetime.start.p0(i64 32, ptr nonnull %5) #11
  call void @llvm.lifetime.start.p0(i64 1, ptr nonnull %6) #11
  invoke void @_ZNSt7__cxx1112basic_stringIcSt11char_traitsIcESaIcEEC2EPKcRKS3_(ptr noundef nonnull align 8 dereferenceable(32) %5, ptr noundef nonnull @.str.11, ptr noundef nonnull align 1 dereferenceable(1) %6)
          to label %33 unwind label %35

33:                                               ; preds = %32
  invoke void @_ZN2cv5errorEiRKNSt7__cxx1112basic_stringIcSt11char_traitsIcESaIcEEEPKcS9_i(i32 noundef -215, ptr noundef nonnull align 8 dereferenceable(32) %5, ptr noundef nonnull @__func__.cvSeqPush, ptr noundef nonnull @.str.1, i32 noundef 1148) #12
          to label %34 unwind label %37

34:                                               ; preds = %33
  unreachable

35:                                               ; preds = %32
  %36 = landingpad { ptr, i32 }
          cleanup
  br label %_ZNSt7__cxx1112basic_stringIcSt11char_traitsIcESaIcEED2Ev.exit37

37:                                               ; preds = %33
  %38 = landingpad { ptr, i32 }
          cleanup
  %39 = load ptr, ptr %5, align 8, !tbaa !3
  %40 = getelementptr inbounds nuw i8, ptr %5, i64 16
  %41 = icmp eq ptr %39, %40
  br i1 %41, label %_ZNKSt7__cxx1112basic_stringIcSt11char_traitsIcESaIcEE11_M_is_localEv.exit.thread.i.i36, label %_ZNKSt7__cxx1112basic_stringIcSt11char_traitsIcESaIcEE11_M_is_localEv.exit.i.i35

_ZNKSt7__cxx1112basic_stringIcSt11char_traitsIcESaIcEE11_M_is_localEv.exit.thread.i.i36: ; preds = %37
  %42 = getelementptr inbounds nuw i8, ptr %5, i64 8
  %43 = load i64, ptr %42, align 8, !tbaa !11
  %44 = icmp ult i64 %43, 16
  call void @llvm.assume(i1 %44)
  br label %_ZNSt7__cxx1112basic_stringIcSt11char_traitsIcESaIcEED2Ev.exit37

_ZNKSt7__cxx1112basic_stringIcSt11char_traitsIcESaIcEE11_M_is_localEv.exit.i.i35: ; preds = %37
  call void @_ZdlPv(ptr noundef %39) #13
  br label %_ZNSt7__cxx1112basic_stringIcSt11char_traitsIcESaIcEED2Ev.exit37

_ZNSt7__cxx1112basic_stringIcSt11char_traitsIcESaIcEED2Ev.exit37: ; preds = %_ZNKSt7__cxx1112basic_stringIcSt11char_traitsIcESaIcEE11_M_is_localEv.exit.i.i35, %_ZNKSt7__cxx1112basic_stringIcSt11char_traitsIcESaIcEE11_M_is_localEv.exit.thread.i.i36, %35
  %.pn31 = phi { ptr, i32 } [ %36, %35 ], [ %38, %_ZNKSt7__cxx1112basic_stringIcSt11char_traitsIcESaIcEE11_M_is_localEv.exit.thread.i.i36 ], [ %38, %_ZNKSt7__cxx1112basic_stringIcSt11char_traitsIcESaIcEE11_M_is_localEv.exit.i.i35 ]
  call void @llvm.lifetime.end.p0(i64 1, ptr nonnull %6) #11
  call void @llvm.lifetime.end.p0(i64 32, ptr nonnull %5) #11
  br label %58

45:                                               ; preds = %28, %20
  %.024 = phi ptr [ %29, %28 ], [ %25, %20 ]
  %.not34 = icmp eq ptr %1, null
  br i1 %.not34, label %47, label %46

46:                                               ; preds = %45
  tail call void @llvm.memcpy.p0.p0.i64(ptr align 1 %.024, ptr nonnull align 1 %1, i64 %23, i1 false)
  br label %47

47:                                               ; preds = %46, %45
  %48 = getelementptr inbounds nuw i8, ptr %0, i64 88
  %49 = load ptr, ptr %48, align 8, !tbaa !43
  %50 = load ptr, ptr %49, align 8, !tbaa !48
  %51 = getelementptr inbounds nuw i8, ptr %50, i64 20
  %52 = load i32, ptr %51, align 4, !tbaa !44
  %53 = add nsw i32 %52, 1
  store i32 %53, ptr %51, align 4, !tbaa !44
  %54 = getelementptr inbounds nuw i8, ptr %0, i64 40
  %55 = load i32, ptr %54, align 8, !tbaa !42
  %56 = add nsw i32 %55, 1
  store i32 %56, ptr %54, align 8, !tbaa !42
  %57 = getelementptr inbounds nuw i8, ptr %.024, i64 %23
  store ptr %57, ptr %24, align 8, !tbaa !69
  ret ptr %.024

58:                                               ; preds = %_ZNSt7__cxx1112basic_stringIcSt11char_traitsIcESaIcEED2Ev.exit37, %_ZNSt7__cxx1112basic_stringIcSt11char_traitsIcESaIcEED2Ev.exit
  %.pn31.pn = phi { ptr, i32 } [ %.pn31, %_ZNSt7__cxx1112basic_stringIcSt11char_traitsIcESaIcEED2Ev.exit37 ], [ %.pn, %_ZNSt7__cxx1112basic_stringIcSt11char_traitsIcESaIcEED2Ev.exit ]
  resume { ptr, i32 } %.pn31.pn
}